target datalayout = "e-m:e-p270:32:32-p271:32:32-p272:64:64-i64:64-i128:128-f80:128-n8:16:32:64-S128"
target triple = "x86_64-pc-linux-gnu"

@_ZN12_GLOBAL__N_117pluralCategoryIdsE = internal global [7 x ptr] [ptr @.str, ptr @.str.15, ptr @.str.16, ptr @.str.17, ptr @.str.18, ptr @.str.19, ptr @.str.20], align 16

; Function Attrs: mustprogress nounwind uwtable
define i32 @udispopt_fromPluralCategoryIdentifier_77(ptr noundef %0) #1 {
  %2 = alloca i32, align 4
  %3 = alloca ptr, align 8
  %4 = alloca i32, align 4
  %5 = alloca i32, align 4
  store ptr %0, ptr %3, align 8, !tbaa !34
  call void @llvm.lifetime.start.p0(i64 4, ptr %4) #4
  store i32 0, ptr %4, align 4, !tbaa !36
  br label %6

6:                                                ; preds = %21, %1
  %7 = load i32, ptr %4, align 4, !tbaa !36
  %8 = icmp slt i32 %7, 7
  br i1 %8, label %10, label %9

9:                                                ; preds = %6
  store i32 2, ptr %5, align 4
  br label %24

10:                                               ; preds = %6
  %11 = load ptr, ptr %3, align 8, !tbaa !34
  %12 = load i32, ptr %4, align 4, !tbaa !36
  %13 = sext i32 %12 to i64
  %14 = getelementptr inbounds [7 x ptr], ptr @_ZN12_GLOBAL__N_117pluralCategoryIdsE, i64 0, i64 %13
  %15 = load ptr, ptr %14, align 8, !tbaa !34
  %16 = call i32 @strcmp(ptr noundef %11, ptr noundef %15) #5
  %17 = icmp eq i32 %16, 0
  br i1 %17, label %18, label %20

18:                                               ; preds = %10
  %19 = load i32, ptr %4, align 4, !tbaa !36
  store i32 %19, ptr %2, align 4
  store i32 1, ptr %5, align 4
  br label %24

20:                                               ; preds = %10
  br label %21

21:                                               ; preds = %20
  %22 = load i32, ptr %4, align 4, !tbaa !36
  %23 = add nsw i32 %22, 1
  store i32 %23, ptr %4, align 4, !tbaa !36
  br label %6, !llvm.loop !41

24:                                               ; preds = %18, %9
  call void @llvm.lifetime.end.p0(i64 4, ptr %4) #4
  %25 = load i32, ptr %5, align 4
  switch i32 %25, label %29 [
    i32 2, label %26
    i32 1, label %27
  ]

26:                                               ; preds = %24
  store i32 0, ptr %2, align 4
  br label %27

27:                                               ; preds = %26, %24
  %28 = load i32, ptr %2, align 4
  ret i32 %28

29:                                               ; preds = %24
  unreachable
}