; Function Attrs: mustprogress nofree nounwind willreturn memory(read, inaccessiblemem: none) uwtable
define i32 @udispopt_fromPluralCategoryIdentifier_77(ptr noundef readonly captures(none) %0) local_unnamed_addr #4 {
  br label %2

2:                                                ; preds = %1, %7
  %indvars.iv = phi i64 [ 0, %1 ], [ %indvars.iv.next, %7 ]
  %3 = getelementptr inbounds nuw [7 x ptr], ptr @_ZN12_GLOBAL__N_117pluralCategoryIdsE, i64 0, i64 %indvars.iv
  %4 = load ptr, ptr %3, align 8, !tbaa !28
  %5 = tail call i32 @strcmp(ptr noundef nonnull dereferenceable(1) %0, ptr noundef nonnull dereferenceable(1) %4) #7
  %6 = icmp eq i32 %5, 0
  br i1 %6, label %.split.loop.exit, label %7

7:                                                ; preds = %2
  %indvars.iv.next = add nuw nsw i64 %indvars.iv, 1
  %exitcond = icmp eq i64 %indvars.iv.next, 7
  br i1 %exitcond, label %.split.loop.exit10, label %2, !llvm.loop !33

.split.loop.exit:                                 ; preds = %2
  %8 = trunc nuw nsw i64 %indvars.iv to i32
  br label %.split.loop.exit10

.split.loop.exit10:                               ; preds = %7, %.split.loop.exit
  %spec.select = phi i32 [ %8, %.split.loop.exit ], [ 0, %7 ]
  ret i32 %spec.select
}